target datalayout = "e-m:e-p270:32:32-p271:32:32-p272:64:64-i64:64-i128:128-f80:128-n8:16:32:64-S128"
target triple = "x86_64-pc-linux-gnu"

; Function Attrs: nounwind ssp uwtable
define internal void @sodium_base64_check_variant(i32 noundef %0) #0 {
  %2 = alloca i32, align 4
  store i32 %0, ptr %2, align 4
  %3 = load i32, ptr %2, align 4
  %4 = and i32 %3, -7
  %5 = icmp ne i32 %4, 1
  br i1 %5, label %6, label %7

6:                                                ; preds = %1
  call void @sodium_misuse() #6
  unreachable

7:                                                ; preds = %1
  ret void
}

; Function Attrs: nounwind ssp uwtable
define dso_local i64 @sodium_base64_encoded_len(i64 noundef %0, i32 noundef %1) #0 {
  %3 = alloca i64, align 8
  %4 = alloca i32, align 4
  store i64 %0, ptr %3, align 8
  store i32 %1, ptr %4, align 4
  %5 = load i32, ptr %4, align 4
  call void @sodium_base64_check_variant(i32 noundef %5)
  %6 = load i64, ptr %3, align 8
  %7 = udiv i64 %6, 3
  %8 = mul i64 %7, 4
  %9 = load i64, ptr %3, align 8
  %10 = load i64, ptr %3, align 8
  %11 = udiv i64 %10, 3
  %12 = mul i64 %11, 3
  %13 = sub i64 %9, %12
  %14 = load i64, ptr %3, align 8
  %15 = load i64, ptr %3, align 8
  %16 = udiv i64 %15, 3
  %17 = mul i64 %16, 3
  %18 = sub i64 %14, %17
  %19 = lshr i64 %18, 1
  %20 = or i64 %13, %19
  %21 = and i64 %20, 1
  %22 = load i32, ptr %4, align 4
  %23 = and i32 %22, 2
  %24 = lshr i32 %23, 1
  %25 = sub i32 %24, 1
  %26 = xor i32 %25, -1
  %27 = zext i32 %26 to i64
  %28 = load i64, ptr %3, align 8
  %29 = load i64, ptr %3, align 8
  %30 = udiv i64 %29, 3
  %31 = mul i64 %30, 3
  %32 = sub i64 %28, %31
  %33 = sub i64 3, %32
  %34 = and i64 %27, %33
  %35 = sub i64 4, %34
  %36 = mul i64 %21, %35
  %37 = add i64 %8, %36
  %38 = add i64 %37, 1
  ret i64 %38
}