; Function Attrs: nounwind ssp uwtable
define dso_local i64 @sodium_base64_encoded_len(i64 noundef %0, i32 noundef %1) local_unnamed_addr #0 {
  %3 = and i32 %1, -7
  %.not.i = icmp eq i32 %3, 1
  br i1 %.not.i, label %sodium_base64_check_variant.exit, label %4

4:                                                ; preds = %2
  tail call void @sodium_misuse() #7
  unreachable

sodium_base64_check_variant.exit:                 ; preds = %2
  %5 = udiv i64 %0, 3
  %6 = shl i64 %5, 2
  %.neg = mul i64 %5, -3
  %7 = add i64 %.neg, %0
  %8 = shl i32 %1, 30
  %9 = ashr i32 %8, 31
  %10 = zext i32 %9 to i64
  %11 = sub i64 3, %7
  %12 = and i64 %11, %10
  %13 = sub nsw i64 4, %12
  %14 = and i64 %7, 3
  %.not = icmp eq i64 %14, 0
  %15 = select i1 %.not, i64 0, i64 %13
  %16 = or disjoint i64 %6, 1
  %17 = add i64 %16, %15
  ret i64 %17
}